; Function Attrs: nounwind uwtable
define hidden void @VP8PutSignedBits(ptr noundef captures(none) %0, i32 noundef %1, i32 noundef %2) local_unnamed_addr #0 {
  %.not = icmp eq i32 %1, 0
  %4 = load i32, ptr %0, align 8, !tbaa !3
  %5 = ashr i32 %4, 1
  br i1 %.not, label %12, label %6

6:                                                ; preds = %3
  %7 = add nsw i32 %5, 1
  %8 = getelementptr inbounds nuw i8, ptr %0, i64 4
  %9 = load i32, ptr %8, align 4, !tbaa !11
  %10 = add nsw i32 %9, %7
  store i32 %10, ptr %8, align 4, !tbaa !11
  %11 = sub nsw i32 %4, %7
  br label %12

12:                                               ; preds = %6, %3
  %storemerge.i = phi i32 [ %11, %6 ], [ %5, %3 ]
  store i32 %storemerge.i, ptr %0, align 8, !tbaa !3
  %13 = icmp slt i32 %storemerge.i, 127
  br i1 %13, label %14, label %VP8PutBitUniform.exit

14:                                               ; preds = %12
  %15 = sext i32 %storemerge.i to i64
  %16 = getelementptr inbounds [128 x i8], ptr @kNewRange, i64 0, i64 %15
  %17 = load i8, ptr %16, align 1, !tbaa !12
  %18 = zext i8 %17 to i32
  store i32 %18, ptr %0, align 8, !tbaa !3
  %19 = getelementptr inbounds nuw i8, ptr %0, i64 4
  %20 = load i32, ptr %19, align 4, !tbaa !11
  %21 = shl i32 %20, 1
  store i32 %21, ptr %19, align 4, !tbaa !11
  %22 = getelementptr inbounds nuw i8, ptr %0, i64 12
  %23 = load i32, ptr %22, align 4, !tbaa !13
  %24 = add nsw i32 %23, 1
  store i32 %24, ptr %22, align 4, !tbaa !13
  %25 = icmp sgt i32 %23, -1
  br i1 %25, label %26, label %VP8PutBitUniform.exit

26:                                               ; preds = %14
  tail call fastcc void @Flush(ptr noundef nonnull %0)
  br label %VP8PutBitUniform.exit

VP8PutBitUniform.exit:                            ; preds = %12, %14, %26
  br i1 %.not, label %VP8PutBits.exit, label %27

27:                                               ; preds = %VP8PutBitUniform.exit
  %28 = icmp slt i32 %1, 0
  br i1 %28, label %29, label %57

29:                                               ; preds = %27
  %.neg = mul i32 %1, -2
  %30 = or disjoint i32 %.neg, 1
  %31 = shl nuw i32 1, %2
  %32 = getelementptr inbounds nuw i8, ptr %0, i64 4
  %33 = getelementptr inbounds nuw i8, ptr %0, i64 12
  br label %34

34:                                               ; preds = %VP8PutBitUniform.exit.i, %29
  %.05.i = phi i32 [ %31, %29 ], [ %56, %VP8PutBitUniform.exit.i ]
  %35 = and i32 %.05.i, %30
  %36 = load i32, ptr %0, align 8, !tbaa !3
  %37 = ashr i32 %36, 1
  %.not.i.i = icmp eq i32 %35, 0
  br i1 %.not.i.i, label %43, label %38

38:                                               ; preds = %34
  %39 = add nsw i32 %37, 1
  %40 = load i32, ptr %32, align 4, !tbaa !11
  %41 = add nsw i32 %40, %39
  store i32 %41, ptr %32, align 4, !tbaa !11
  %42 = sub nsw i32 %36, %39
  br label %43

43:                                               ; preds = %38, %34
  %storemerge.i.i = phi i32 [ %42, %38 ], [ %37, %34 ]
  store i32 %storemerge.i.i, ptr %0, align 8, !tbaa !3
  %44 = icmp slt i32 %storemerge.i.i, 127
  br i1 %44, label %45, label %VP8PutBitUniform.exit.i

45:                                               ; preds = %43
  %46 = sext i32 %storemerge.i.i to i64
  %47 = getelementptr inbounds [128 x i8], ptr @kNewRange, i64 0, i64 %46
  %48 = load i8, ptr %47, align 1, !tbaa !12
  %49 = zext i8 %48 to i32
  store i32 %49, ptr %0, align 8, !tbaa !3
  %50 = load i32, ptr %32, align 4, !tbaa !11
  %51 = shl i32 %50, 1
  store i32 %51, ptr %32, align 4, !tbaa !11
  %52 = load i32, ptr %33, align 4, !tbaa !13
  %53 = add nsw i32 %52, 1
  store i32 %53, ptr %33, align 4, !tbaa !13
  %54 = icmp sgt i32 %52, -1
  br i1 %54, label %55, label %VP8PutBitUniform.exit.i

55:                                               ; preds = %45
  tail call fastcc void @Flush(ptr noundef nonnull %0)
  br label %VP8PutBitUniform.exit.i

VP8PutBitUniform.exit.i:                          ; preds = %55, %45, %43
  %56 = lshr i32 %.05.i, 1
  %.not.i8 = icmp ult i32 %.05.i, 2
  br i1 %.not.i8, label %VP8PutBits.exit, label %34, !llvm.loop !21

57:                                               ; preds = %27
  %58 = shl nuw i32 %1, 1
  %59 = shl nuw i32 1, %2
  %60 = getelementptr inbounds nuw i8, ptr %0, i64 4
  %61 = getelementptr inbounds nuw i8, ptr %0, i64 12
  br label %62

62:                                               ; preds = %VP8PutBitUniform.exit.i12, %57
  %.05.i9 = phi i32 [ %59, %57 ], [ %84, %VP8PutBitUniform.exit.i12 ]
  %63 = and i32 %.05.i9, %58
  %64 = load i32, ptr %0, align 8, !tbaa !3
  %65 = ashr i32 %64, 1
  %.not.i.i10 = icmp eq i32 %63, 0
  br i1 %.not.i.i10, label %71, label %66

66:                                               ; preds = %62
  %67 = add nsw i32 %65, 1
  %68 = load i32, ptr %60, align 4, !tbaa !11
  %69 = add nsw i32 %68, %67
  store i32 %69, ptr %60, align 4, !tbaa !11
  %70 = sub nsw i32 %64, %67
  br label %71

71:                                               ; preds = %66, %62
  %storemerge.i.i11 = phi i32 [ %70, %66 ], [ %65, %62 ]
  store i32 %storemerge.i.i11, ptr %0, align 8, !tbaa !3
  %72 = icmp slt i32 %storemerge.i.i11, 127
  br i1 %72, label %73, label %VP8PutBitUniform.exit.i12

73:                                               ; preds = %71
  %74 = sext i32 %storemerge.i.i11 to i64
  %75 = getelementptr inbounds [128 x i8], ptr @kNewRange, i64 0, i64 %74
  %76 = load i8, ptr %75, align 1, !tbaa !12
  %77 = zext i8 %76 to i32
  store i32 %77, ptr %0, align 8, !tbaa !3
  %78 = load i32, ptr %60, align 4, !tbaa !11
  %79 = shl i32 %78, 1
  store i32 %79, ptr %60, align 4, !tbaa !11
  %80 = load i32, ptr %61, align 4, !tbaa !13
  %81 = add nsw i32 %80, 1
  store i32 %81, ptr %61, align 4, !tbaa !13
  %82 = icmp sgt i32 %80, -1
  br i1 %82, label %83, label %VP8PutBitUniform.exit.i12

83:                                               ; preds = %73
  tail call fastcc void @Flush(ptr noundef nonnull %0)
  br label %VP8PutBitUniform.exit.i12

VP8PutBitUniform.exit.i12:                        ; preds = %83, %73, %71
  %84 = lshr i32 %.05.i9, 1
  %.not.i13 = icmp ult i32 %.05.i9, 2
  br i1 %.not.i13, label %VP8PutBits.exit, label %62, !llvm.loop !21

VP8PutBits.exit:                                  ; preds = %VP8PutBitUniform.exit.i12, %VP8PutBitUniform.exit.i, %VP8PutBitUniform.exit
  ret void
}